(dp1
S'files'
p2
(dp3
S'_pynoclecover'
p4
(dp5
S'index'
p6
(dp7
S'par'
p8
I0
sS'html_filename'
p9
S'_pynoclecover.html'
p10
sS'name'
p11
g4
sS'nums'
p12
ccopy_reg
_reconstructor
p13
(ccoverage.results
Numbers
p14
c__builtin__
object
p15
NtRp16
(dp17
S'n_files'
p18
I1
sS'n_branches'
p19
I0
sS'n_statements'
p20
I9
sS'n_excluded'
p21
I0
sS'n_missing'
p22
I6
sS'n_missing_branches'
p23
I0
sbssS'hash'
p24
S'J\x81B\xe22\x7f\x88\xc8k\xf2\x99-\x9dt\xc4\xd2'
p25
ssS'utils'
p26
(dp27
g6
(dp28
g8
I0
sg9
S'utils.html'
p29
sg11
g26
sg12
g13
(g14
g15
NtRp30
(dp31
g18
I1
sg19
I0
sg20
I78
sg21
I0
sg22
I11
sg23
I0
sbssg24
S'\xfd\xb0\x87U\xde\xa9N\xad\xd8\xda\xb9Ioh\x06K'
p32
ssS'depgraph_pagerank'
p33
(dp34
g6
(dp35
g8
I0
sg9
S'depgraph_pagerank.html'
p36
sg11
S'depgraph\\pagerank'
p37
sg12
g13
(g14
g15
NtRp38
(dp39
g18
I1
sg19
I0
sg20
I104
sg21
I0
sg22
I5
sg23
I0
sbssg24
S'd\xa8\xe2\xedr\x84V\xe5\x96\x8e\xa5\xf2\x08t\xdd\xa3'
p40
ssS'tableprint'
p41
(dp42
g6
(dp43
g8
I0
sg9
S'tableprint.html'
p44
sg11
g41
sg12
g13
(g14
g15
NtRp45
(dp46
g18
I1
sg19
I0
sg20
I60
sg21
I0
sg22
I43
sg23
I0
sbssg24
S'\x95\xed:\x93\x1696\x15\t\xb6\xcfFt\xff\x91g'
p47
ssS'sloc_formatting'
p48
(dp49
g6
(dp50
g8
I0
sg9
S'sloc_formatting.html'
p51
sg11
S'sloc\\formatting'
p52
sg12
g13
(g14
g15
NtRp53
(dp54
g18
I1
sg19
I0
sg20
I60
sg21
I0
sg22
I38
sg23
I0
sbssg24
S'qw\x11\xe8\xa1\x0c\xfc\x84>5\xc2\x81\xf4\x106\x8a'
p55
ssS'__init__'
p56
(dp57
g6
(dp58
g8
I0
sg9
S'__init__.html'
p59
sg11
g56
sg12
g13
(g14
g15
NtRp60
(dp61
g18
I1
sg19
I0
sg20
I143
sg21
I0
sg22
I110
sg23
I0
sbssg24
S'\xf0\xf8\x026\xaa\x85\x15=\xbe=\xb6p\x88\x11\x0b\xdf'
p62
ssS'sloc_slocing'
p63
(dp64
g6
(dp65
g8
I0
sg9
S'sloc_slocing.html'
p66
sg11
S'sloc\\slocing'
p67
sg12
g13
(g14
g15
NtRp68
(dp69
g18
I1
sg19
I0
sg20
I57
sg21
I0
sg22
I45
sg23
I0
sbssg24
S'\xce\xe9\xdbf\xca]{\x94\x1b\xf8\xe2d$\xa6\x1e~'
p70
ssS'funcinfo___init__'
p71
(dp72
g6
(dp73
g8
I0
sg9
S'funcinfo___init__.html'
p74
sg11
S'funcinfo\\__init__'
p75
sg12
g13
(g14
g15
NtRp76
(dp77
g18
I1
sg19
I0
sg20
I20
sg21
I0
sg22
I14
sg23
I0
sbssg24
S"'\xc0KR3\xc8I\r\xd0\x83\x88^\xf9\xd1\xf4."
p78
ssS'cyclcompl_statbuilder'
p79
(dp80
g6
(dp81
g8
I0
sg9
S'cyclcompl_statbuilder.html'
p82
sg11
S'cyclcompl\\statbuilder'
p83
sg12
g13
(g14
g15
NtRp84
(dp85
g18
I1
sg19
I0
sg20
I96
sg21
I0
sg22
I64
sg23
I0
sbssg24
S'\x0e\xbbw\xf8\xc3L\x9a\x99\xd8\xa2(e\xf4\x0b\xac\x84'
p86
ssS'test_modulefinder'
p87
(dp88
g6
(dp89
g8
I0
sg9
S'test_modulefinder.html'
p90
sg11
g87
sg12
g13
(g14
g15
NtRp91
(dp92
g18
I1
sg19
I0
sg20
I56
sg21
I0
sg22
I0
sg23
I0
sbssg24
S'bC\x03\x00\xdeCTT\xe5\xc3\xd5@gqH\xc2'
p93
ssS'depgraph___init__'
p94
(dp95
g6
(dp96
g8
I0
sg9
S'depgraph___init__.html'
p97
sg11
S'depgraph\\__init__'
p98
sg12
g13
(g14
g15
NtRp99
(dp100
g18
I1
sg19
I0
sg20
I6
sg21
I0
sg22
I0
sg23
I0
sbssg24
S'\xc8Hy\xe2\x11\xa4iF[\x9e\xe0\xeb\xe3\xd9k\x91'
p101
ssS'depgraph_rendering'
p102
(dp103
g6
(dp104
g8
I0
sg9
S'depgraph_rendering.html'
p105
sg11
S'depgraph\\rendering'
p106
sg12
g13
(g14
g15
NtRp107
(dp108
g18
I1
sg19
I0
sg20
I175
sg21
I0
sg22
I135
sg23
I0
sbssg24
S'-=?\x80\x0c\xc3M\xb7\xaf=\x0f\rN\\KG'
p109
ssS'depgraph_xmlrpcrenderer'
p110
(dp111
g6
(dp112
g8
I0
sg9
S'depgraph_xmlrpcrenderer.html'
p113
sg11
S'depgraph\\xmlrpcrenderer'
p114
sg12
g13
(g14
g15
NtRp115
(dp116
g18
I1
sg19
I0
sg20
I66
sg21
I0
sg22
I47
sg23
I0
sbssg24
S'Mf\x11\xffL#y\xea,\x1b+\xcf\x15\xda\xf9\xc2'
p117
ssS'depgraph_test_xmlrpcrenderer'
p118
(dp119
g6
(dp120
g8
I0
sg9
S'depgraph_test_xmlrpcrenderer.html'
p121
sg11
S'depgraph\\test_xmlrpcrenderer'
p122
sg12
g13
(g14
g15
NtRp123
(dp124
g18
I1
sg19
I0
sg20
I4
sg21
I0
sg22
I0
sg23
I0
sbssg24
S'\xf5\xa36\xde+\xea\x90^\x01(p0\x96\xba\x8d+'
p125
ssS'cyclcompl_formatting'
p126
(dp127
g6
(dp128
g8
I0
sg9
S'cyclcompl_formatting.html'
p129
sg11
S'cyclcompl\\formatting'
p130
sg12
g13
(g14
g15
NtRp131
(dp132
g18
I1
sg19
I0
sg20
I76
sg21
I0
sg22
I54
sg23
I0
sbssg24
S'\xc4\xbf\xc6p({i+\x9f\xb2k\x0b~\xe1+\xda'
p133
ssS'depgraph_depbuilder'
p134
(dp135
g6
(dp136
g8
I0
sg9
S'depgraph_depbuilder.html'
p137
sg11
S'depgraph\\depbuilder'
p138
sg12
g13
(g14
g15
NtRp139
(dp140
g18
I1
sg19
I0
sg20
I111
sg21
I0
sg22
I85
sg23
I0
sbssg24
S'B\xf9\x9a\xe6\xdb\x1e]\x07N\x11L $J\xa2E'
p141
ssS'depgraph_test_pagerank'
p142
(dp143
g6
(dp144
g8
I0
sg9
S'depgraph_test_pagerank.html'
p145
sg11
S'depgraph\\test_pagerank'
p146
sg12
g13
(g14
g15
NtRp147
(dp148
g18
I1
sg19
I0
sg20
I21
sg21
I0
sg22
I0
sg23
I0
sbssg24
S'\x95U\xed,\xcf\xd6\x7f\x18r\xb7\xd7\x1a\xca8\xce\xf6'
p149
ssS'_modulefinder'
p150
(dp151
g6
(dp152
g8
I0
sg9
S'_modulefinder.html'
p153
sg11
g150
sg12
g13
(g14
g15
NtRp154
(dp155
g18
I1
sg19
I0
sg20
I87
sg21
I0
sg22
I19
sg23
I0
sbssg24
S'U\x86\xf29RN\xa0\x0b2\x07?\x1eX#\x05\xe6'
p156
ssS'test_utils'
p157
(dp158
g6
(dp159
g8
I0
sg9
S'test_utils.html'
p160
sg11
g157
sg12
g13
(g14
g15
NtRp161
(dp162
g18
I1
sg19
I0
sg20
I102
sg21
I0
sg22
I0
sg23
I0
sbssg24
S'\xc4O\x8c-\x90\x8e\x06\xbb\xd0m[Iv\x83\xd3\xec'
p163
ssS'cyclcompl___init__'
p164
(dp165
g6
(dp166
g8
I0
sg9
S'cyclcompl___init__.html'
p167
sg11
S'cyclcompl\\__init__'
p168
sg12
g13
(g14
g15
NtRp169
(dp170
g18
I1
sg19
I0
sg20
I4
sg21
I0
sg22
I0
sg23
I0
sbssg24
S'\xaf\xe7\xd7@Z@r\xaeozw9\x0b\xef\x0e\xfc'
p171
ssS'depgraph_formatting'
p172
(dp173
g6
(dp174
g8
I0
sg9
S'depgraph_formatting.html'
p175
sg11
S'depgraph\\formatting'
p176
sg12
g13
(g14
g15
NtRp177
(dp178
g18
I1
sg19
I0
sg20
I104
sg21
I0
sg22
I69
sg23
I0
sbssg24
S'\x08\xac=N\xca\x7f\t\xf8\x07\xea7\x17\xcad<\x16'
p179
ssS'inheritance___init__'
p180
(dp181
g6
(dp182
g8
I0
sg9
S'inheritance___init__.html'
p183
sg11
S'inheritance\\__init__'
p184
sg12
g13
(g14
g15
NtRp185
(dp186
g18
I1
sg19
I0
sg20
I42
sg21
I0
sg22
I27
sg23
I0
sbssg24
S'\xbcLE\x1bb\xf6B\xdbX\x99:\n\x9ce\x13\x1d'
p187
ssS'test_init'
p188
(dp189
g6
(dp190
g8
I0
sg9
S'test_init.html'
p191
sg11
g188
sg12
g13
(g14
g15
NtRp192
(dp193
g18
I1
sg19
I0
sg20
I23
sg21
I0
sg22
I19
sg23
I0
sbssg24
S'\x9c\xd3\x9f\xf49\xb2\x03\x80)\x12\xc1|\xff\xe1M-'
p194
ssS'sloc___init__'
p195
(dp196
g6
(dp197
g8
I0
sg9
S'sloc___init__.html'
p198
sg11
S'sloc\\__init__'
p199
sg12
g13
(g14
g15
NtRp200
(dp201
g18
I1
sg19
I0
sg20
I4
sg21
I0
sg22
I0
sg23
I0
sbssg24
S'\x8aAAF\xd0C\xdb~\xad\x96zE\xd5|6h'
p202
sssS'version'
p203
S'3.5'
p204
sS'settings'
p205
S'\x93H\x1e\xa1\x93p\xcd%vfT\xbaG \x89\xad'
p206
sS'format'
p207
I1
s.