(dp1
S'files'
p2
(dp3
S'_pynoclecover'
p4
(dp5
S'index'
p6
(dp7
S'par'
p8
I0
sS'html_filename'
p9
S'_pynoclecover.html'
p10
sS'name'
p11
g4
sS'nums'
p12
ccopy_reg
_reconstructor
p13
(ccoverage.results
Numbers
p14
c__builtin__
object
p15
NtRp16
(dp17
S'n_files'
p18
I1
sS'n_branches'
p19
I0
sS'n_statements'
p20
I8
sS'n_excluded'
p21
I0
sS'n_missing'
p22
I6
sS'n_missing_branches'
p23
I0
sbssS'hash'
p24
S'a\xdd:!q\xdc:\x99Z?N/\x11v\x16?'
p25
ssS'test_init'
p26
(dp27
g6
(dp28
g8
I0
sg9
S'test_init.html'
p29
sg11
g26
sg12
g13
(g14
g15
NtRp30
(dp31
g18
I1
sg19
I0
sg20
I12
sg21
I0
sg22
I10
sg23
I0
sbssg24
S'X\x85*\xc3\x8aQ:R\x81gU2_\x9c\xfb\xa6'
p32
ssS'depgraph_depbuilder'
p33
(dp34
g6
(dp35
g8
I0
sg9
S'depgraph_depbuilder.html'
p36
sg11
S'depgraph\\depbuilder'
p37
sg12
g13
(g14
g15
NtRp38
(dp39
g18
I1
sg19
I0
sg20
I112
sg21
I0
sg22
I88
sg23
I0
sbssg24
S'\xe16\xaf\x80\x12Q\xb6\x05\x88\xc0\x00\xc6\xbftQ '
p40
ssS'test_utils'
p41
(dp42
g6
(dp43
g8
I0
sg9
S'test_utils.html'
p44
sg11
g41
sg12
g13
(g14
g15
NtRp45
(dp46
g18
I1
sg19
I0
sg20
I51
sg21
I0
sg22
I0
sg23
I0
sbssg24
S'z\x9a\xbc\xc8\x91\xfeZS\x8b\xa9\xe5$\xf8B\x12\xa0'
p47
ssS'depgraph_xmlrpcrenderer'
p48
(dp49
g6
(dp50
g8
I0
sg9
S'depgraph_xmlrpcrenderer.html'
p51
sg11
S'depgraph\\xmlrpcrenderer'
p52
sg12
g13
(g14
g15
NtRp53
(dp54
g18
I1
sg19
I0
sg20
I65
sg21
I0
sg22
I47
sg23
I0
sbssg24
S'z\xc8\xdb\x0b"\xf9!\xac=\\\x07(TA\xc6\xe1'
p55
ssS'cyclcompl___init__'
p56
(dp57
g6
(dp58
g8
I0
sg9
S'cyclcompl___init__.html'
p59
sg11
S'cyclcompl\\__init__'
p60
sg12
g13
(g14
g15
NtRp61
(dp62
g18
I1
sg19
I0
sg20
I4
sg21
I0
sg22
I0
sg23
I0
sbssg24
S"'.\t\x03\xe1\xf8\x88\xb1\x158\x90\xab\x07z2\xf2"
p63
ssS'sloc_formatting'
p64
(dp65
g6
(dp66
g8
I0
sg9
S'sloc_formatting.html'
p67
sg11
S'sloc\\formatting'
p68
sg12
g13
(g14
g15
NtRp69
(dp70
g18
I1
sg19
I0
sg20
I33
sg21
I0
sg22
I23
sg23
I0
sbssg24
S'E\x17_\x01\xca\x91\xb8\xbaT\x16\xe0\x90\xc2\x10X\x17'
p71
ssS'utils'
p72
(dp73
g6
(dp74
g8
I0
sg9
S'utils.html'
p75
sg11
g72
sg12
g13
(g14
g15
NtRp76
(dp77
g18
I1
sg19
I0
sg20
I64
sg21
I0
sg22
I22
sg23
I0
sbssg24
S'{\x8a$\xb6\xe7\xb6\xe1\x11\xf9*\xee\xcdt\\l\xef'
p78
ssS'cyclcompl_statbuilder'
p79
(dp80
g6
(dp81
g8
I0
sg9
S'cyclcompl_statbuilder.html'
p82
sg11
S'cyclcompl\\statbuilder'
p83
sg12
g13
(g14
g15
NtRp84
(dp85
g18
I1
sg19
I0
sg20
I95
sg21
I0
sg22
I64
sg23
I0
sbssg24
S'\xf5\x1c\xfa\x12\x04\x7f\xec\x1c\xc7;\x95\xe8\xba^\x98p'
p86
ssS'depgraph_pagerank'
p87
(dp88
g6
(dp89
g8
I0
sg9
S'depgraph_pagerank.html'
p90
sg11
S'depgraph\\pagerank'
p91
sg12
g13
(g14
g15
NtRp92
(dp93
g18
I1
sg19
I0
sg20
I103
sg21
I0
sg22
I5
sg23
I0
sbssg24
S'\x16\xd5\xfef\xc7\xe1Xa\x1cIk\x98/Bkb'
p94
ssS'depgraph_test_pagerank'
p95
(dp96
g6
(dp97
g8
I0
sg9
S'depgraph_test_pagerank.html'
p98
sg11
S'depgraph\\test_pagerank'
p99
sg12
g13
(g14
g15
NtRp100
(dp101
g18
I1
sg19
I0
sg20
I21
sg21
I0
sg22
I0
sg23
I0
sbssg24
S'8o\xba\xdfISV\xd0J\x83\xe97[\xb2\xe5\x81'
p102
ssS'depgraph_test_xmlrpcrenderer'
p103
(dp104
g6
(dp105
g8
I0
sg9
S'depgraph_test_xmlrpcrenderer.html'
p106
sg11
S'depgraph\\test_xmlrpcrenderer'
p107
sg12
g13
(g14
g15
NtRp108
(dp109
g18
I1
sg19
I0
sg20
I4
sg21
I0
sg22
I0
sg23
I0
sbssg24
S'\xb9D\xc7(\xf9\xa5\x9c\x08\n\x03@\x18\x14\xf1\x02u'
p110
ssS'depgraph___init__'
p111
(dp112
g6
(dp113
g8
I0
sg9
S'depgraph___init__.html'
p114
sg11
S'depgraph\\__init__'
p115
sg12
g13
(g14
g15
NtRp116
(dp117
g18
I1
sg19
I0
sg20
I7
sg21
I0
sg22
I0
sg23
I0
sbssg24
S'\x15\n\x1c\x16\xed\x9b\x07tX\xea(N_\x90I\xd9'
p118
ssS'depgraph_formatting'
p119
(dp120
g6
(dp121
g8
I0
sg9
S'depgraph_formatting.html'
p122
sg11
S'depgraph\\formatting'
p123
sg12
g13
(g14
g15
NtRp124
(dp125
g18
I1
sg19
I0
sg20
I54
sg21
I0
sg22
I40
sg23
I0
sbssg24
S'\x81\x0bks%FS\x8b\x9dH\xa5\x1e\x83\x7fj4'
p126
ssS'cyclcompl_formatting'
p127
(dp128
g6
(dp129
g8
I0
sg9
S'cyclcompl_formatting.html'
p130
sg11
S'cyclcompl\\formatting'
p131
sg12
g13
(g14
g15
NtRp132
(dp133
g18
I1
sg19
I0
sg20
I52
sg21
I0
sg22
I41
sg23
I0
sbssg24
S'\xdf\x9bj\xd7^9\xbb\xa0\x89\xa0I\xed\xc4K\xeb\xc7'
p134
ssS'inheritance___init__'
p135
(dp136
g6
(dp137
g8
I0
sg9
S'inheritance___init__.html'
p138
sg11
S'inheritance\\__init__'
p139
sg12
g13
(g14
g15
NtRp140
(dp141
g18
I1
sg19
I0
sg20
I42
sg21
I0
sg22
I27
sg23
I0
sbssg24
S'\xc4\xbd\xad\xa7=\x91\xa9\x91\xc15\\\x0c\xe0\x19\xe3\x9e'
p142
ssS'tableprint'
p143
(dp144
g6
(dp145
g8
I0
sg9
S'tableprint.html'
p146
sg11
g143
sg12
g13
(g14
g15
NtRp147
(dp148
g18
I1
sg19
I0
sg20
I44
sg21
I0
sg22
I33
sg23
I0
sbssg24
S'UR\xef\x7f\xd13ZN\xbd\x8b\x05\x15\x9b\xee\xebO'
p149
ssS'depgraph_rendering'
p150
(dp151
g6
(dp152
g8
I0
sg9
S'depgraph_rendering.html'
p153
sg11
S'depgraph\\rendering'
p154
sg12
g13
(g14
g15
NtRp155
(dp156
g18
I1
sg19
I0
sg20
I74
sg21
I0
sg22
I55
sg23
I0
sbssg24
S'\x83\xed.\x9ea\x97\xbb\xedF"\x8c\xc8^qjS'
p157
ssS'sloc___init__'
p158
(dp159
g6
(dp160
g8
I0
sg9
S'sloc___init__.html'
p161
sg11
S'sloc\\__init__'
p162
sg12
g13
(g14
g15
NtRp163
(dp164
g18
I1
sg19
I0
sg20
I4
sg21
I0
sg22
I0
sg23
I0
sbssg24
S'\\\x87\x0e\xf1._\xc2\xc3\xb5\xaao\xa9\xaeR\x19\x1b'
p165
ssS'__init__'
p166
(dp167
g6
(dp168
g8
I0
sg9
S'__init__.html'
p169
sg11
g166
sg12
g13
(g14
g15
NtRp170
(dp171
g18
I1
sg19
I0
sg20
I153
sg21
I0
sg22
I109
sg23
I0
sbssg24
S'\x0cu\x8ePo(\x93\\\x84C\xac%!\xfe\xf1\xa6'
p172
ssS'sloc_slocing'
p173
(dp174
g6
(dp175
g8
I0
sg9
S'sloc_slocing.html'
p176
sg11
S'sloc\\slocing'
p177
sg12
g13
(g14
g15
NtRp178
(dp179
g18
I1
sg19
I0
sg20
I57
sg21
I0
sg22
I45
sg23
I0
sbssg24
S"O\xfe4P\xf8\xb0\xec\xff'\xad\xa4\xd1J\xe2\x81\xf6"
p180
sssS'version'
p181
S'3.5'
p182
sS'settings'
p183
S'\xa6K\x1f(+\x05\n6\xf1\x1e\x16\xa4L(\x9e.'
p184
sS'format'
p185
I1
s.